; Function Attrs: mustprogress nounwind uwtable
define void @_ZN9RBDataMapD2Ev(ptr nocapture noundef nonnull align 8 dereferenceable(16) %this) unnamed_addr #7 align 2 personality ptr @__gxx_personality_v0 {
entry:
  store ptr getelementptr inbounds ({ [13 x ptr] }, ptr @_ZTV9RBDataMap, i64 0, i32 0, i64 2), ptr %this, align 8
  %fData = getelementptr inbounds i8, ptr %this, i64 8
  %0 = load ptr, ptr %fData, align 8
  %isnull = icmp eq ptr %0, null
  br i1 %isnull, label %delete.end, label %delete.notnull

delete.notnull:                                   ; preds = %entry
  %1 = load ptr, ptr %0, align 8
  %cmp.not.i = icmp eq ptr %1, null
  br i1 %cmp.not.i, label %_ZN6icu_759HashtableD2Ev.exit, label %if.then.i

if.then.i:                                        ; preds = %delete.notnull
  invoke void @uhash_close_75(ptr noundef nonnull %1)
          to label %_ZN6icu_759HashtableD2Ev.exit unwind label %terminate.lpad.i

terminate.lpad.i:                                 ; preds = %if.then.i
  %2 = landingpad { ptr, i32 }
          catch ptr null
  %3 = extractvalue { ptr, i32 } %2, 0
  tail call void @__clang_call_terminate(ptr %3) #14
  unreachable

_ZN6icu_759HashtableD2Ev.exit:                    ; preds = %delete.notnull, %if.then.i
  tail call void @_ZN6icu_757UMemorydlEPv(ptr noundef nonnull %0) #15
  br label %delete.end

delete.end:                                       ; preds = %_ZN6icu_759HashtableD2Ev.exit, %entry
  ret void
}